target datalayout = "e-m:e-p270:32:32-p271:32:32-p272:64:64-i64:64-i128:128-f80:128-n8:16:32:64-S128"
target triple = "x86_64-unknown-linux-gnu"

%struct.VirtIOSCSICommon = type { %struct.VirtIODevice, %struct.VirtIOSCSIConf, i32, i32, ptr, ptr, ptr }
%struct.VirtIODevice = type { %struct.DeviceState, ptr, i8, i8, i16, i64, i64, i64, i64, ptr, i16, i32, i32, ptr, %struct.MemoryListener, i16, i8, i8, i8, i8, i8, i8, i8, i8, i8, ptr, ptr, i8, i8, ptr, ptr, %union.anon.1, %struct.EventNotifier, i8 }
%struct.DeviceState = type { %struct.Object, ptr, ptr, i8, i8, i64, ptr, i32, i8, ptr, %struct.NamedGPIOListHead, %struct.NamedClockListHead, %struct.BusStateHead, i32, i32, i32, %struct.ResettableState, ptr, %struct.MemReentrancyGuard }
%struct.Object = type { ptr, ptr, ptr, i32, ptr }
%struct.NamedGPIOListHead = type { ptr }
%struct.NamedClockListHead = type { ptr }
%struct.BusStateHead = type { ptr }
%struct.ResettableState = type { i32, i8, i8 }
%struct.MemReentrancyGuard = type { i8 }
%struct.MemoryListener = type { ptr, ptr, ptr, ptr, ptr, ptr, ptr, ptr, ptr, ptr, ptr, ptr, ptr, ptr, ptr, ptr, ptr, i32, ptr, ptr, %union.anon, %union.anon.0 }
%union.anon = type { %struct.QTailQLink }
%struct.QTailQLink = type { ptr, ptr }
%union.anon.0 = type { %struct.QTailQLink }
%union.anon.1 = type { %struct.QTailQLink }
%struct.EventNotifier = type { i32, i32, i8 }
%struct.VirtIOSCSIConf = type { i32, i32, i8, i32, i32, ptr, ptr, %struct.CharBackend, i32, ptr }
%struct.CharBackend = type { ptr, ptr, ptr, ptr, ptr, ptr, i32, i32 }
%struct.virtio_scsi_config = type { i32, i32, i32, i32, i32, i32, i32, i16, i16, i32 }

@.str.5 = private unnamed_addr constant [19 x i8] c"virtio-scsi-common\00", align 1
@.str.6 = private unnamed_addr constant [110 x i8] c"/home/dtcxzyw/WorkSpace/Projects/compilers/llvm-opt-benchmark/bench/qemu/qemu/include/hw/virtio/virtio-scsi.h\00", align 1
@__func__.VIRTIO_SCSI_COMMON = private unnamed_addr constant [19 x i8] c"VIRTIO_SCSI_COMMON\00", align 1

; Function Attrs: nounwind sspstrong uwtable
define internal void @stw_he_p(ptr noundef %ptr, i16 noundef zeroext %v) #0 {
entry:
  %ptr.addr = alloca ptr, align 8
  %v.addr = alloca i16, align 2
  store ptr %ptr, ptr %ptr.addr, align 8
  store i16 %v, ptr %v.addr, align 2
  %0 = load ptr, ptr %ptr.addr, align 8
  call void @llvm.memcpy.p0.p0.i64(ptr align 1 %0, ptr align 2 %v.addr, i64 2, i1 false)
  ret void
}

; Function Attrs: nounwind sspstrong uwtable
define internal void @stl_he_p(ptr noundef %ptr, i32 noundef %v) #0 {
entry:
  %ptr.addr = alloca ptr, align 8
  %v.addr = alloca i32, align 4
  store ptr %ptr, ptr %ptr.addr, align 8
  store i32 %v, ptr %v.addr, align 4
  %0 = load ptr, ptr %ptr.addr, align 8
  call void @llvm.memcpy.p0.p0.i64(ptr align 1 %0, ptr align 4 %v.addr, i64 4, i1 false)
  ret void
}

; Function Attrs: nounwind sspstrong uwtable
define internal void @stw_le_p(ptr noundef %ptr, i16 noundef zeroext %v) #0 {
entry:
  %ptr.addr = alloca ptr, align 8
  %v.addr = alloca i16, align 2
  store ptr %ptr, ptr %ptr.addr, align 8
  store i16 %v, ptr %v.addr, align 2
  %0 = load ptr, ptr %ptr.addr, align 8
  %1 = load i16, ptr %v.addr, align 2
  call void @stw_he_p(ptr noundef %0, i16 noundef zeroext %1)
  ret void
}

; Function Attrs: nounwind sspstrong uwtable
define internal void @stw_be_p(ptr noundef %ptr, i16 noundef zeroext %v) #0 {
entry:
  %ptr.addr = alloca ptr, align 8
  %v.addr = alloca i16, align 2
  store ptr %ptr, ptr %ptr.addr, align 8
  store i16 %v, ptr %v.addr, align 2
  %0 = load ptr, ptr %ptr.addr, align 8
  %1 = load i16, ptr %v.addr, align 2
  %2 = call i16 @llvm.bswap.i16(i16 %1)
  call void @stw_he_p(ptr noundef %0, i16 noundef zeroext %2)
  ret void
}

; Function Attrs: nounwind sspstrong uwtable
define internal void @stl_le_p(ptr noundef %ptr, i32 noundef %v) #0 {
entry:
  %ptr.addr = alloca ptr, align 8
  %v.addr = alloca i32, align 4
  store ptr %ptr, ptr %ptr.addr, align 8
  store i32 %v, ptr %v.addr, align 4
  %0 = load ptr, ptr %ptr.addr, align 8
  %1 = load i32, ptr %v.addr, align 4
  call void @stl_he_p(ptr noundef %0, i32 noundef %1)
  ret void
}

; Function Attrs: nounwind sspstrong uwtable
define internal void @stl_be_p(ptr noundef %ptr, i32 noundef %v) #0 {
entry:
  %ptr.addr = alloca ptr, align 8
  %v.addr = alloca i32, align 4
  store ptr %ptr, ptr %ptr.addr, align 8
  store i32 %v, ptr %v.addr, align 4
  %0 = load ptr, ptr %ptr.addr, align 8
  %1 = load i32, ptr %v.addr, align 4
  %2 = call i32 @llvm.bswap.i32(i32 %1)
  call void @stl_he_p(ptr noundef %0, i32 noundef %2)
  ret void
}

; Function Attrs: nounwind sspstrong uwtable
define internal zeroext i1 @virtio_access_is_big_endian(ptr noundef %vdev) #0 {
entry:
  %vdev.addr = alloca ptr, align 8
  store ptr %vdev, ptr %vdev.addr, align 8
  ret i1 false
}

; Function Attrs: nounwind sspstrong uwtable
define internal void @virtio_stw_p(ptr noundef %vdev, ptr noundef %ptr, i16 noundef zeroext %v) #0 {
entry:
  %vdev.addr = alloca ptr, align 8
  %ptr.addr = alloca ptr, align 8
  %v.addr = alloca i16, align 2
  store ptr %vdev, ptr %vdev.addr, align 8
  store ptr %ptr, ptr %ptr.addr, align 8
  store i16 %v, ptr %v.addr, align 2
  %0 = load ptr, ptr %vdev.addr, align 8
  %call = call zeroext i1 @virtio_access_is_big_endian(ptr noundef %0)
  br i1 %call, label %if.then, label %if.else

if.then:                                          ; preds = %entry
  %1 = load ptr, ptr %ptr.addr, align 8
  %2 = load i16, ptr %v.addr, align 2
  call void @stw_be_p(ptr noundef %1, i16 noundef zeroext %2)
  br label %if.end

if.else:                                          ; preds = %entry
  %3 = load ptr, ptr %ptr.addr, align 8
  %4 = load i16, ptr %v.addr, align 2
  call void @stw_le_p(ptr noundef %3, i16 noundef zeroext %4)
  br label %if.end

if.end:                                           ; preds = %if.else, %if.then
  ret void
}

; Function Attrs: nounwind sspstrong uwtable
define internal void @virtio_stl_p(ptr noundef %vdev, ptr noundef %ptr, i32 noundef %v) #0 {
entry:
  %vdev.addr = alloca ptr, align 8
  %ptr.addr = alloca ptr, align 8
  %v.addr = alloca i32, align 4
  store ptr %vdev, ptr %vdev.addr, align 8
  store ptr %ptr, ptr %ptr.addr, align 8
  store i32 %v, ptr %v.addr, align 4
  %0 = load ptr, ptr %vdev.addr, align 8
  %call = call zeroext i1 @virtio_access_is_big_endian(ptr noundef %0)
  br i1 %call, label %if.then, label %if.else

if.then:                                          ; preds = %entry
  %1 = load ptr, ptr %ptr.addr, align 8
  %2 = load i32, ptr %v.addr, align 4
  call void @stl_be_p(ptr noundef %1, i32 noundef %2)
  br label %if.end

if.else:                                          ; preds = %entry
  %3 = load ptr, ptr %ptr.addr, align 8
  %4 = load i32, ptr %v.addr, align 4
  call void @stl_le_p(ptr noundef %3, i32 noundef %4)
  br label %if.end

if.end:                                           ; preds = %if.else, %if.then
  ret void
}

; Function Attrs: nounwind sspstrong uwtable
define internal ptr @VIRTIO_SCSI_COMMON(ptr noundef %obj) #0 {
entry:
  %obj.addr = alloca ptr, align 8
  store ptr %obj, ptr %obj.addr, align 8
  %0 = load ptr, ptr %obj.addr, align 8
  %call = call ptr @object_dynamic_cast_assert(ptr noundef %0, ptr noundef @.str.5, ptr noundef @.str.6, i32 noundef 28, ptr noundef @__func__.VIRTIO_SCSI_COMMON)
  ret ptr %call
}

; Function Attrs: nounwind sspstrong uwtable
define internal void @virtio_scsi_get_config(ptr noundef %vdev, ptr noundef %config) #0 {
entry:
  %vdev.addr = alloca ptr, align 8
  %config.addr = alloca ptr, align 8
  %scsiconf = alloca ptr, align 8
  %s = alloca ptr, align 8
  store ptr %vdev, ptr %vdev.addr, align 8
  store ptr %config, ptr %config.addr, align 8
  %0 = load ptr, ptr %config.addr, align 8
  store ptr %0, ptr %scsiconf, align 8
  %1 = load ptr, ptr %vdev.addr, align 8
  %call = call ptr @VIRTIO_SCSI_COMMON(ptr noundef %1)
  store ptr %call, ptr %s, align 8
  %2 = load ptr, ptr %vdev.addr, align 8
  %3 = load ptr, ptr %scsiconf, align 8
  %num_queues = getelementptr inbounds %struct.virtio_scsi_config, ptr %3, i32 0, i32 0
  %4 = load ptr, ptr %s, align 8
  %conf = getelementptr inbounds %struct.VirtIOSCSICommon, ptr %4, i32 0, i32 1
  %num_queues1 = getelementptr inbounds %struct.VirtIOSCSIConf, ptr %conf, i32 0, i32 0
  %5 = load i32, ptr %num_queues1, align 8
  call void @virtio_stl_p(ptr noundef %2, ptr noundef %num_queues, i32 noundef %5)
  %6 = load ptr, ptr %vdev.addr, align 8
  %7 = load ptr, ptr %scsiconf, align 8
  %seg_max = getelementptr inbounds %struct.virtio_scsi_config, ptr %7, i32 0, i32 1
  %8 = load ptr, ptr %s, align 8
  %conf2 = getelementptr inbounds %struct.VirtIOSCSICommon, ptr %8, i32 0, i32 1
  %seg_max_adjust = getelementptr inbounds %struct.VirtIOSCSIConf, ptr %conf2, i32 0, i32 2
  %9 = load i8, ptr %seg_max_adjust, align 8
  %tobool = trunc i8 %9 to i1
  br i1 %tobool, label %cond.true, label %cond.false

cond.true:                                        ; preds = %entry
  %10 = load ptr, ptr %s, align 8
  %conf3 = getelementptr inbounds %struct.VirtIOSCSICommon, ptr %10, i32 0, i32 1
  %virtqueue_size = getelementptr inbounds %struct.VirtIOSCSIConf, ptr %conf3, i32 0, i32 1
  %11 = load i32, ptr %virtqueue_size, align 4
  %sub = sub i32 %11, 2
  br label %cond.end

cond.false:                                       ; preds = %entry
  br label %cond.end

cond.end:                                         ; preds = %cond.false, %cond.true
  %cond = phi i32 [ %sub, %cond.true ], [ 126, %cond.false ]
  call void @virtio_stl_p(ptr noundef %6, ptr noundef %seg_max, i32 noundef %cond)
  %12 = load ptr, ptr %vdev.addr, align 8
  %13 = load ptr, ptr %scsiconf, align 8
  %max_sectors = getelementptr inbounds %struct.virtio_scsi_config, ptr %13, i32 0, i32 2
  %14 = load ptr, ptr %s, align 8
  %conf4 = getelementptr inbounds %struct.VirtIOSCSICommon, ptr %14, i32 0, i32 1
  %max_sectors5 = getelementptr inbounds %struct.VirtIOSCSIConf, ptr %conf4, i32 0, i32 3
  %15 = load i32, ptr %max_sectors5, align 4
  call void @virtio_stl_p(ptr noundef %12, ptr noundef %max_sectors, i32 noundef %15)
  %16 = load ptr, ptr %vdev.addr, align 8
  %17 = load ptr, ptr %scsiconf, align 8
  %cmd_per_lun = getelementptr inbounds %struct.virtio_scsi_config, ptr %17, i32 0, i32 3
  %18 = load ptr, ptr %s, align 8
  %conf6 = getelementptr inbounds %struct.VirtIOSCSICommon, ptr %18, i32 0, i32 1
  %cmd_per_lun7 = getelementptr inbounds %struct.VirtIOSCSIConf, ptr %conf6, i32 0, i32 4
  %19 = load i32, ptr %cmd_per_lun7, align 8
  call void @virtio_stl_p(ptr noundef %16, ptr noundef %cmd_per_lun, i32 noundef %19)
  %20 = load ptr, ptr %vdev.addr, align 8
  %21 = load ptr, ptr %scsiconf, align 8
  %event_info_size = getelementptr inbounds %struct.virtio_scsi_config, ptr %21, i32 0, i32 4
  call void @virtio_stl_p(ptr noundef %20, ptr noundef %event_info_size, i32 noundef 16)
  %22 = load ptr, ptr %vdev.addr, align 8
  %23 = load ptr, ptr %scsiconf, align 8
  %sense_size = getelementptr inbounds %struct.virtio_scsi_config, ptr %23, i32 0, i32 5
  %24 = load ptr, ptr %s, align 8
  %sense_size8 = getelementptr inbounds %struct.VirtIOSCSICommon, ptr %24, i32 0, i32 2
  %25 = load i32, ptr %sense_size8, align 8
  call void @virtio_stl_p(ptr noundef %22, ptr noundef %sense_size, i32 noundef %25)
  %26 = load ptr, ptr %vdev.addr, align 8
  %27 = load ptr, ptr %scsiconf, align 8
  %cdb_size = getelementptr inbounds %struct.virtio_scsi_config, ptr %27, i32 0, i32 6
  %28 = load ptr, ptr %s, align 8
  %cdb_size9 = getelementptr inbounds %struct.VirtIOSCSICommon, ptr %28, i32 0, i32 3
  %29 = load i32, ptr %cdb_size9, align 4
  call void @virtio_stl_p(ptr noundef %26, ptr noundef %cdb_size, i32 noundef %29)
  %30 = load ptr, ptr %vdev.addr, align 8
  %31 = load ptr, ptr %scsiconf, align 8
  %max_channel = getelementptr inbounds %struct.virtio_scsi_config, ptr %31, i32 0, i32 7
  call void @virtio_stw_p(ptr noundef %30, ptr noundef %max_channel, i16 noundef zeroext 0)
  %32 = load ptr, ptr %vdev.addr, align 8
  %33 = load ptr, ptr %scsiconf, align 8
  %max_target = getelementptr inbounds %struct.virtio_scsi_config, ptr %33, i32 0, i32 8
  call void @virtio_stw_p(ptr noundef %32, ptr noundef %max_target, i16 noundef zeroext 255)
  %34 = load ptr, ptr %vdev.addr, align 8
  %35 = load ptr, ptr %scsiconf, align 8
  %max_lun = getelementptr inbounds %struct.virtio_scsi_config, ptr %35, i32 0, i32 9
  call void @virtio_stl_p(ptr noundef %34, ptr noundef %max_lun, i32 noundef 16383)
  ret void
}