; Function Attrs: nounwind sspstrong uwtable
define internal void @virtio_scsi_get_config(ptr noundef %vdev, ptr noundef writeonly captures(none) initializes((0, 36)) %config) #0 {
entry:
  %call.i = tail call ptr @object_dynamic_cast_assert(ptr noundef %vdev, ptr noundef nonnull @.str.5, ptr noundef nonnull @.str.6, i32 noundef 28, ptr noundef nonnull @__func__.VIRTIO_SCSI_COMMON) #13
  %conf = getelementptr inbounds nuw i8, ptr %call.i, i64 520
  %0 = load i32, ptr %conf, align 8
  store i32 %0, ptr %config, align 1
  %seg_max_adjust = getelementptr inbounds nuw i8, ptr %call.i, i64 528
  %1 = load i8, ptr %seg_max_adjust, align 8
  %tobool = trunc i8 %1 to i1
  br i1 %tobool, label %cond.true, label %cond.end

cond.true:                                        ; preds = %entry
  %virtqueue_size = getelementptr inbounds nuw i8, ptr %call.i, i64 524
  %2 = load i32, ptr %virtqueue_size, align 4
  %sub = add i32 %2, -2
  br label %cond.end

cond.end:                                         ; preds = %entry, %cond.true
  %cond = phi i32 [ %sub, %cond.true ], [ 126, %entry ]
  %seg_max = getelementptr inbounds nuw i8, ptr %config, i64 4
  store i32 %cond, ptr %seg_max, align 1
  %max_sectors = getelementptr inbounds nuw i8, ptr %config, i64 8
  %max_sectors5 = getelementptr inbounds nuw i8, ptr %call.i, i64 532
  %3 = load i32, ptr %max_sectors5, align 4
  store i32 %3, ptr %max_sectors, align 1
  %cmd_per_lun = getelementptr inbounds nuw i8, ptr %config, i64 12
  %cmd_per_lun7 = getelementptr inbounds nuw i8, ptr %call.i, i64 536
  %4 = load i32, ptr %cmd_per_lun7, align 8
  store i32 %4, ptr %cmd_per_lun, align 1
  %event_info_size = getelementptr inbounds nuw i8, ptr %config, i64 16
  store i32 16, ptr %event_info_size, align 1
  %sense_size = getelementptr inbounds nuw i8, ptr %config, i64 20
  %sense_size8 = getelementptr inbounds nuw i8, ptr %call.i, i64 632
  %5 = load i32, ptr %sense_size8, align 8
  store i32 %5, ptr %sense_size, align 1
  %cdb_size = getelementptr inbounds nuw i8, ptr %config, i64 24
  %cdb_size9 = getelementptr inbounds nuw i8, ptr %call.i, i64 636
  %6 = load i32, ptr %cdb_size9, align 4
  store i32 %6, ptr %cdb_size, align 1
  %max_channel = getelementptr inbounds nuw i8, ptr %config, i64 28
  store i16 0, ptr %max_channel, align 1
  %max_target = getelementptr inbounds nuw i8, ptr %config, i64 30
  store i16 255, ptr %max_target, align 1
  %max_lun = getelementptr inbounds nuw i8, ptr %config, i64 32
  store i32 16383, ptr %max_lun, align 1
  ret void
}